; Function Attrs: mustprogress uwtable
define internal fastcc void @_ZN18OpenImageIO_v2_6_0L20append_if_env_existsERNSt7__cxx1112basic_stringIcSt11char_traitsIcESaIcEEEPKcb(ptr noundef nonnull align 8 dereferenceable(32) %searchpath, ptr nocapture noundef readonly %env, i1 noundef zeroext %prepend) unnamed_addr #5 personality ptr @__gxx_personality_v0 {
entry:
  %newpath = alloca %"class.std::__cxx11::basic_string", align 8
  %ref.tmp = alloca %"class.std::allocator.22", align 1
  %ref.tmp7 = alloca %"class.std::__cxx11::basic_string", align 8
  %ref.tmp8 = alloca %"class.std::__cxx11::basic_string", align 8
  %ref.tmp14 = alloca %"class.std::__cxx11::basic_string", align 8
  %ref.tmp15 = alloca %"class.std::__cxx11::basic_string", align 8
  %call = tail call ptr @getenv(ptr noundef %env) #23
  %tobool.not = icmp eq ptr %call, null
  br i1 %tobool.not, label %if.end23, label %land.lhs.true

land.lhs.true:                                    ; preds = %entry
  %0 = load i8, ptr %call, align 1
  %tobool1.not = icmp eq i8 %0, 0
  br i1 %tobool1.not, label %if.end23, label %if.then

if.then:                                          ; preds = %land.lhs.true
  call void @_ZNSaIcEC1Ev(ptr noundef nonnull align 1 dereferenceable(1) %ref.tmp) #23
  %call.i8 = invoke noundef ptr @_ZNSt7__cxx1112basic_stringIcSt11char_traitsIcESaIcEE13_M_local_dataEv(ptr noundef nonnull align 8 dereferenceable(32) %newpath)
          to label %call.i.noexc unwind label %lpad

call.i.noexc:                                     ; preds = %if.then
  invoke void @_ZNSt7__cxx1112basic_stringIcSt11char_traitsIcESaIcEE12_Alloc_hiderC1EPcRKS3_(ptr noundef nonnull align 8 dereferenceable(8) %newpath, ptr noundef %call.i8, ptr noundef nonnull align 1 dereferenceable(1) %ref.tmp)
          to label %if.end.i unwind label %lpad

lpad.i:                                           ; preds = %if.end.i
  %1 = landingpad { ptr, i32 }
          cleanup
  call void @_ZNSaIcED2Ev(ptr noundef nonnull align 1 dereferenceable(1) %newpath) #23
  br label %lpad.body

if.end.i:                                         ; preds = %call.i.noexc
  %call.i.i = call noundef i64 @strlen(ptr noundef nonnull dereferenceable(1) %call) #23
  %add.ptr.i = getelementptr inbounds i8, ptr %call, i64 %call.i.i
  invoke void @_ZNSt7__cxx1112basic_stringIcSt11char_traitsIcESaIcEE12_M_constructIPKcEEvT_S8_St20forward_iterator_tag(ptr noundef nonnull align 8 dereferenceable(32) %newpath, ptr noundef nonnull %call, ptr noundef nonnull %add.ptr.i)
          to label %invoke.cont unwind label %lpad.i

invoke.cont:                                      ; preds = %if.end.i
  call void @_ZNSaIcED1Ev(ptr noundef nonnull align 1 dereferenceable(1) %ref.tmp) #23
  %call2 = call noundef i64 @_ZNKSt7__cxx1112basic_stringIcSt11char_traitsIcESaIcEE6lengthEv(ptr noundef nonnull align 8 dereferenceable(32) %searchpath) #23
  %tobool3.not = icmp eq i64 %call2, 0
  br i1 %tobool3.not, label %if.end20, label %if.then4

if.then4:                                         ; preds = %invoke.cont
  br i1 %prepend, label %if.then6, label %if.else

if.then6:                                         ; preds = %if.then4
  invoke void @_ZNSt7__cxx1112basic_stringIcSt11char_traitsIcESaIcEEC1ERKS4_(ptr noundef nonnull align 8 dereferenceable(32) %ref.tmp8, ptr noundef nonnull align 8 dereferenceable(32) %newpath)
          to label %.noexc10 unwind label %lpad9

.noexc10:                                         ; preds = %if.then6
  %call.i = invoke noundef nonnull align 8 dereferenceable(32) ptr @_ZNSt7__cxx1112basic_stringIcSt11char_traitsIcESaIcEE6appendEmc(ptr noundef nonnull align 8 dereferenceable(32) %ref.tmp8, i64 noundef 1, i8 noundef signext 58)
          to label %invoke.cont10 unwind label %lpad.i9

lpad.i9:                                          ; preds = %.noexc10
  %2 = landingpad { ptr, i32 }
          cleanup
  call void @_ZNSt7__cxx1112basic_stringIcSt11char_traitsIcESaIcEED1Ev(ptr noundef nonnull align 8 dereferenceable(32) %ref.tmp8) #23
  br label %ehcleanup

invoke.cont10:                                    ; preds = %.noexc10
  %call.i1213 = invoke noundef nonnull align 8 dereferenceable(32) ptr @_ZNSt7__cxx1112basic_stringIcSt11char_traitsIcESaIcEE6appendERKS4_(ptr noundef nonnull align 8 dereferenceable(32) %ref.tmp8, ptr noundef nonnull align 8 dereferenceable(32) %searchpath)
          to label %invoke.cont12 unwind label %lpad11

invoke.cont12:                                    ; preds = %invoke.cont10
  call void @_ZNSt7__cxx1112basic_stringIcSt11char_traitsIcESaIcEEC1EOS4_(ptr noundef nonnull align 8 dereferenceable(32) %ref.tmp7, ptr noundef nonnull align 8 dereferenceable(32) %call.i1213) #23
  br label %if.end20.sink.split

lpad:                                             ; preds = %call.i.noexc, %if.then
  %3 = landingpad { ptr, i32 }
          cleanup
  br label %lpad.body

lpad.body:                                        ; preds = %lpad.i, %lpad
  %eh.lpad-body = phi { ptr, i32 } [ %3, %lpad ], [ %1, %lpad.i ]
  call void @_ZNSaIcED1Ev(ptr noundef nonnull align 1 dereferenceable(1) %ref.tmp) #23
  br label %eh.resume

lpad9:                                            ; preds = %if.else, %if.then6, %if.end20
  %4 = landingpad { ptr, i32 }
          cleanup
  br label %ehcleanup

lpad11:                                           ; preds = %invoke.cont10
  %5 = landingpad { ptr, i32 }
          cleanup
  call void @_ZNSt7__cxx1112basic_stringIcSt11char_traitsIcESaIcEED1Ev(ptr noundef nonnull align 8 dereferenceable(32) %ref.tmp8) #23
  br label %ehcleanup

if.else:                                          ; preds = %if.then4
  invoke void @_ZNSt7__cxx1112basic_stringIcSt11char_traitsIcESaIcEEC1ERKS4_(ptr noundef nonnull align 8 dereferenceable(32) %ref.tmp15, ptr noundef nonnull align 8 dereferenceable(32) %searchpath)
          to label %.noexc16 unwind label %lpad9

.noexc16:                                         ; preds = %if.else
  %call.i14 = invoke noundef nonnull align 8 dereferenceable(32) ptr @_ZNSt7__cxx1112basic_stringIcSt11char_traitsIcESaIcEE6appendEmc(ptr noundef nonnull align 8 dereferenceable(32) %ref.tmp15, i64 noundef 1, i8 noundef signext 58)
          to label %invoke.cont16 unwind label %lpad.i15

lpad.i15:                                         ; preds = %.noexc16
  %6 = landingpad { ptr, i32 }
          cleanup
  call void @_ZNSt7__cxx1112basic_stringIcSt11char_traitsIcESaIcEED1Ev(ptr noundef nonnull align 8 dereferenceable(32) %ref.tmp15) #23
  br label %ehcleanup

invoke.cont16:                                    ; preds = %.noexc16
  %call.i2021 = invoke noundef nonnull align 8 dereferenceable(32) ptr @_ZNSt7__cxx1112basic_stringIcSt11char_traitsIcESaIcEE6appendERKS4_(ptr noundef nonnull align 8 dereferenceable(32) %ref.tmp15, ptr noundef nonnull align 8 dereferenceable(32) %newpath)
          to label %invoke.cont18 unwind label %lpad17

invoke.cont18:                                    ; preds = %invoke.cont16
  call void @_ZNSt7__cxx1112basic_stringIcSt11char_traitsIcESaIcEEC1EOS4_(ptr noundef nonnull align 8 dereferenceable(32) %ref.tmp14, ptr noundef nonnull align 8 dereferenceable(32) %call.i2021) #23
  br label %if.end20.sink.split

lpad17:                                           ; preds = %invoke.cont16
  %7 = landingpad { ptr, i32 }
          cleanup
  call void @_ZNSt7__cxx1112basic_stringIcSt11char_traitsIcESaIcEED1Ev(ptr noundef nonnull align 8 dereferenceable(32) %ref.tmp15) #23
  br label %ehcleanup

if.end20.sink.split:                              ; preds = %invoke.cont18, %invoke.cont12
  %ref.tmp7.sink23 = phi ptr [ %ref.tmp7, %invoke.cont12 ], [ %ref.tmp14, %invoke.cont18 ]
  %ref.tmp8.sink = phi ptr [ %ref.tmp8, %invoke.cont12 ], [ %ref.tmp15, %invoke.cont18 ]
  %call13 = call noundef nonnull align 8 dereferenceable(32) ptr @_ZNSt7__cxx1112basic_stringIcSt11char_traitsIcESaIcEEaSEOS4_(ptr noundef nonnull align 8 dereferenceable(32) %newpath, ptr noundef nonnull align 8 dereferenceable(32) %ref.tmp7.sink23) #23
  call void @_ZNSt7__cxx1112basic_stringIcSt11char_traitsIcESaIcEED1Ev(ptr noundef nonnull align 8 dereferenceable(32) %ref.tmp7.sink23) #23
  call void @_ZNSt7__cxx1112basic_stringIcSt11char_traitsIcESaIcEED1Ev(ptr noundef nonnull align 8 dereferenceable(32) %ref.tmp8.sink) #23
  br label %if.end20

if.end20:                                         ; preds = %if.end20.sink.split, %invoke.cont
  %call22 = invoke noundef nonnull align 8 dereferenceable(32) ptr @_ZNSt7__cxx1112basic_stringIcSt11char_traitsIcESaIcEEaSERKS4_(ptr noundef nonnull align 8 dereferenceable(32) %searchpath, ptr noundef nonnull align 8 dereferenceable(32) %newpath)
          to label %invoke.cont21 unwind label %lpad9

invoke.cont21:                                    ; preds = %if.end20
  call void @_ZNSt7__cxx1112basic_stringIcSt11char_traitsIcESaIcEED1Ev(ptr noundef nonnull align 8 dereferenceable(32) %newpath) #23
  br label %if.end23

ehcleanup:                                        ; preds = %lpad.i9, %lpad.i15, %lpad9, %lpad17, %lpad11
  %.pn = phi { ptr, i32 } [ %5, %lpad11 ], [ %7, %lpad17 ], [ %2, %lpad.i9 ], [ %4, %lpad9 ], [ %6, %lpad.i15 ]
  call void @_ZNSt7__cxx1112basic_stringIcSt11char_traitsIcESaIcEED1Ev(ptr noundef nonnull align 8 dereferenceable(32) %newpath) #23
  br label %eh.resume

if.end23:                                         ; preds = %invoke.cont21, %land.lhs.true, %entry
  ret void

eh.resume:                                        ; preds = %ehcleanup, %lpad.body
  %.pn.pn = phi { ptr, i32 } [ %.pn, %ehcleanup ], [ %eh.lpad-body, %lpad.body ]
  resume { ptr, i32 } %.pn.pn
}